; Function Attrs: nounwind uwtable
define range(i32 -1, 1) i32 @H5C_log_write_evict_cache_msg(ptr nocapture noundef readonly %0, i32 noundef %1) local_unnamed_addr #0 {
  %3 = getelementptr inbounds i8, ptr %0, i64 8
  %4 = load ptr, ptr %3, align 8
  %5 = getelementptr inbounds i8, ptr %4, i64 8
  %6 = load ptr, ptr %5, align 8
  %7 = getelementptr inbounds i8, ptr %6, i64 64
  %8 = load ptr, ptr %7, align 8
  %.not = icmp eq ptr %8, null
  br i1 %.not, label %18, label %9

9:                                                ; preds = %2
  %10 = getelementptr inbounds i8, ptr %4, i64 16
  %11 = load ptr, ptr %10, align 8
  %12 = tail call i32 %8(ptr noundef %11, i32 noundef %1) #3
  %13 = icmp slt i32 %12, 0
  br i1 %13, label %14, label %18

14:                                               ; preds = %9
  %15 = load i64, ptr @H5E_CACHE_g, align 8
  %16 = load i64, ptr @H5E_LOGGING_g, align 8
  %17 = tail call i32 (ptr, ptr, i32, i64, i64, ptr, ...) @H5E_printf_stack(ptr noundef nonnull @.str, ptr noundef nonnull @__func__.H5C_log_write_evict_cache_msg, i32 noundef 354, i64 noundef %15, i64 noundef %16, ptr noundef nonnull @.str.16) #3
  br label %18

18:                                               ; preds = %2, %9, %14
  %.0 = phi i32 [ -1, %14 ], [ 0, %9 ], [ 0, %2 ]
  ret i32 %.0
}